target datalayout = "e-m:e-p270:32:32-p271:32:32-p272:64:64-i64:64-i128:128-f80:128-n8:16:32:64-S128"
target triple = "x86_64-pc-linux-gnu"

%"class.std::__cxx11::basic_string" = type { %"struct.std::__cxx11::basic_string<char>::_Alloc_hider", i64, %union.anon }
%"struct.std::__cxx11::basic_string<char>::_Alloc_hider" = type { ptr }
%union.anon = type { i64, [8 x i8] }
%"class.std::vector.3" = type { %"struct.std::_Vector_base.4" }
%"struct.std::_Vector_base.4" = type { %"struct.std::_Vector_base<std::__cxx11::basic_string<char>, std::allocator<std::__cxx11::basic_string<char>>>::_Vector_impl" }
%"struct.std::_Vector_base<std::__cxx11::basic_string<char>, std::allocator<std::__cxx11::basic_string<char>>>::_Vector_impl" = type { %"struct.std::_Vector_base<std::__cxx11::basic_string<char>, std::allocator<std::__cxx11::basic_string<char>>>::_Vector_impl_data" }
%"struct.std::_Vector_base<std::__cxx11::basic_string<char>, std::allocator<std::__cxx11::basic_string<char>>>::_Vector_impl_data" = type { ptr, ptr, ptr }
%"class.std::map" = type { %"class.std::_Rb_tree" }
%"class.std::_Rb_tree" = type { %"struct.std::_Rb_tree<std::__cxx11::basic_string<char>, std::pair<const std::__cxx11::basic_string<char>, std::__cxx11::basic_string<char>>, std::_Select1st<std::pair<const std::__cxx11::basic_string<char>, std::__cxx11::basic_string<char>>>, std::less<std::__cxx11::basic_string<char>>>::_Rb_tree_impl" }
%"struct.std::_Rb_tree<std::__cxx11::basic_string<char>, std::pair<const std::__cxx11::basic_string<char>, std::__cxx11::basic_string<char>>, std::_Select1st<std::pair<const std::__cxx11::basic_string<char>, std::__cxx11::basic_string<char>>>, std::less<std::__cxx11::basic_string<char>>>::_Rb_tree_impl" = type { [8 x i8], %"struct.std::_Rb_tree_header" }
%"struct.std::_Rb_tree_header" = type { %"struct.std::_Rb_tree_node_base", i64 }
%"struct.std::_Rb_tree_node_base" = type { i32, ptr, ptr, ptr }
%"struct.rocksdb::Options" = type { %"struct.rocksdb::DBOptions.base", %"struct.rocksdb::ColumnFamilyOptions" }
%"struct.rocksdb::DBOptions.base" = type <{ i8, i8, i8, i8, i8, i8, i8, i8, i8, [7 x i8], ptr, %"class.std::shared_ptr", %"class.std::shared_ptr.8", %"class.std::shared_ptr.11", i8, [3 x i8], i32, i32, [4 x i8], i64, %"class.std::shared_ptr.14", i8, [7 x i8], %"class.std::vector.17", %"class.std::__cxx11::basic_string", %"class.std::__cxx11::basic_string", i64, i32, i32, i32, i32, i64, i64, i64, i64, i64, i32, [4 x i8], i64, i64, i64, i8, i8, i8, i8, i8, i8, [2 x i8], i32, i32, i8, [7 x i8], i64, i8, [7 x i8], i64, %"class.std::shared_ptr.22", i64, i64, i8, [7 x i8], i64, i64, i8, [7 x i8], %"class.std::vector.25", i8, [7 x i8], i64, i8, i8, i8, i8, [4 x i8], i64, i64, i64, i8, i8, i8, i8, [4 x i8], %"class.std::shared_ptr.30", ptr, i8, i8, i8, i8, i8, i8, i8, i8, i8, i8, i8, i8, i8, i8, [2 x i8], i64, %"class.std::shared_ptr.33", i8, [3 x i8], i32, i64, i8, [7 x i8], %"class.std::__cxx11::basic_string", %"class.rocksdb::SmallEnumSet", %"class.std::shared_ptr.36", i8, i8, [6 x i8], %"class.std::__cxx11::basic_string", i64, i64, i64, i8, i8 }>
%"class.std::shared_ptr" = type { %"class.std::__shared_ptr" }
%"class.std::__shared_ptr" = type { ptr, %"class.std::__shared_count" }
%"class.std::__shared_count" = type { ptr }
%"class.std::shared_ptr.8" = type { %"class.std::__shared_ptr.9" }
%"class.std::__shared_ptr.9" = type { ptr, %"class.std::__shared_count" }
%"class.std::shared_ptr.11" = type { %"class.std::__shared_ptr.12" }
%"class.std::__shared_ptr.12" = type { ptr, %"class.std::__shared_count" }
%"class.std::shared_ptr.14" = type { %"class.std::__shared_ptr.15" }
%"class.std::__shared_ptr.15" = type { ptr, %"class.std::__shared_count" }
%"class.std::vector.17" = type { %"struct.std::_Vector_base.18" }
%"struct.std::_Vector_base.18" = type { %"struct.std::_Vector_base<rocksdb::DbPath, std::allocator<rocksdb::DbPath>>::_Vector_impl" }
%"struct.std::_Vector_base<rocksdb::DbPath, std::allocator<rocksdb::DbPath>>::_Vector_impl" = type { %"struct.std::_Vector_base<rocksdb::DbPath, std::allocator<rocksdb::DbPath>>::_Vector_impl_data" }
%"struct.std::_Vector_base<rocksdb::DbPath, std::allocator<rocksdb::DbPath>>::_Vector_impl_data" = type { ptr, ptr, ptr }
%"class.std::shared_ptr.22" = type { %"class.std::__shared_ptr.23" }
%"class.std::__shared_ptr.23" = type { ptr, %"class.std::__shared_count" }
%"class.std::vector.25" = type { %"struct.std::_Vector_base.26" }
%"struct.std::_Vector_base.26" = type { %"struct.std::_Vector_base<std::shared_ptr<rocksdb::EventListener>, std::allocator<std::shared_ptr<rocksdb::EventListener>>>::_Vector_impl" }
%"struct.std::_Vector_base<std::shared_ptr<rocksdb::EventListener>, std::allocator<std::shared_ptr<rocksdb::EventListener>>>::_Vector_impl" = type { %"struct.std::_Vector_base<std::shared_ptr<rocksdb::EventListener>, std::allocator<std::shared_ptr<rocksdb::EventListener>>>::_Vector_impl_data" }
%"struct.std::_Vector_base<std::shared_ptr<rocksdb::EventListener>, std::allocator<std::shared_ptr<rocksdb::EventListener>>>::_Vector_impl_data" = type { ptr, ptr, ptr }
%"class.std::shared_ptr.30" = type { %"class.std::__shared_ptr.31" }
%"class.std::__shared_ptr.31" = type { ptr, %"class.std::__shared_count" }
%"class.std::shared_ptr.33" = type { %"class.std::__shared_ptr.34" }
%"class.std::__shared_ptr.34" = type { ptr, %"class.std::__shared_count" }
%"class.rocksdb::SmallEnumSet" = type { i64 }
%"class.std::shared_ptr.36" = type { %"class.std::__shared_ptr.37" }
%"class.std::__shared_ptr.37" = type { ptr, %"class.std::__shared_count" }
%"struct.rocksdb::ColumnFamilyOptions" = type { %"struct.rocksdb::AdvancedColumnFamilyOptions.base", ptr, %"class.std::shared_ptr.65", ptr, %"class.std::shared_ptr.68", i64, i8, i8, [6 x i8], %"struct.rocksdb::CompressionOptions", %"struct.rocksdb::CompressionOptions", i32, %"class.std::shared_ptr.39", i64, i64, i8, %"class.std::shared_ptr.71", %"class.std::vector.17", %"class.std::shared_ptr.74", %"class.std::shared_ptr.77", i32, i32 }
%"struct.rocksdb::AdvancedColumnFamilyOptions.base" = type <{ i32, i32, i32, [4 x i8], i64, i8, [7 x i8], i64, double, ptr, double, i8, [7 x i8], i64, %"class.std::shared_ptr.39", i32, [4 x i8], i64, %"class.std::vector.42", i32, i32, i32, [4 x i8], i64, i32, i8, [3 x i8], double, %"class.std::vector.47", i64, i64, i64, i8, i8, [2 x i8], %"class.rocksdb::CompactionOptionsUniversal", [4 x i8], %"struct.rocksdb::CompactionOptionsFIFO", i64, %"class.std::shared_ptr.57", %"class.std::vector.60", i64, i8, i8, i8, i8, i8, [3 x i8], i64, i64, i64, i8, i8, i8, [5 x i8], i64, i64, i8, [7 x i8], i64, i64, i8, i8, [6 x i8], double, double, i64, i32, [4 x i8], %"class.std::shared_ptr.30", i8, [3 x i8], i32, i8, i8, [2 x i8], i32, i8 }>
%"class.std::vector.42" = type { %"struct.std::_Vector_base.43" }
%"struct.std::_Vector_base.43" = type { %"struct.std::_Vector_base<rocksdb::CompressionType, std::allocator<rocksdb::CompressionType>>::_Vector_impl" }
%"struct.std::_Vector_base<rocksdb::CompressionType, std::allocator<rocksdb::CompressionType>>::_Vector_impl" = type { %"struct.std::_Vector_base<rocksdb::CompressionType, std::allocator<rocksdb::CompressionType>>::_Vector_impl_data" }
%"struct.std::_Vector_base<rocksdb::CompressionType, std::allocator<rocksdb::CompressionType>>::_Vector_impl_data" = type { ptr, ptr, ptr }
%"class.std::vector.47" = type { %"struct.std::_Vector_base.48" }
%"struct.std::_Vector_base.48" = type { %"struct.std::_Vector_base<int, std::allocator<int>>::_Vector_impl" }
%"struct.std::_Vector_base<int, std::allocator<int>>::_Vector_impl" = type { %"struct.std::_Vector_base<int, std::allocator<int>>::_Vector_impl_data" }
%"struct.std::_Vector_base<int, std::allocator<int>>::_Vector_impl_data" = type { ptr, ptr, ptr }
%"class.rocksdb::CompactionOptionsUniversal" = type <{ i32, i32, i32, i32, i32, i32, i32, i8, i8, [2 x i8] }>
%"struct.rocksdb::CompactionOptionsFIFO" = type { i64, i8, i64, %"class.std::vector.52" }
%"class.std::vector.52" = type { %"struct.std::_Vector_base.53" }
%"struct.std::_Vector_base.53" = type { %"struct.std::_Vector_base<rocksdb::FileTemperatureAge, std::allocator<rocksdb::FileTemperatureAge>>::_Vector_impl" }
%"struct.std::_Vector_base<rocksdb::FileTemperatureAge, std::allocator<rocksdb::FileTemperatureAge>>::_Vector_impl" = type { %"struct.std::_Vector_base<rocksdb::FileTemperatureAge, std::allocator<rocksdb::FileTemperatureAge>>::_Vector_impl_data" }
%"struct.std::_Vector_base<rocksdb::FileTemperatureAge, std::allocator<rocksdb::FileTemperatureAge>>::_Vector_impl_data" = type { ptr, ptr, ptr }
%"class.std::shared_ptr.57" = type { %"class.std::__shared_ptr.58" }
%"class.std::__shared_ptr.58" = type { ptr, %"class.std::__shared_count" }
%"class.std::vector.60" = type { %"struct.std::_Vector_base.61" }
%"struct.std::_Vector_base.61" = type { %"struct.std::_Vector_base<std::shared_ptr<rocksdb::TablePropertiesCollectorFactory>, std::allocator<std::shared_ptr<rocksdb::TablePropertiesCollectorFactory>>>::_Vector_impl" }
%"struct.std::_Vector_base<std::shared_ptr<rocksdb::TablePropertiesCollectorFactory>, std::allocator<std::shared_ptr<rocksdb::TablePropertiesCollectorFactory>>>::_Vector_impl" = type { %"struct.std::_Vector_base<std::shared_ptr<rocksdb::TablePropertiesCollectorFactory>, std::allocator<std::shared_ptr<rocksdb::TablePropertiesCollectorFactory>>>::_Vector_impl_data" }
%"struct.std::_Vector_base<std::shared_ptr<rocksdb::TablePropertiesCollectorFactory>, std::allocator<std::shared_ptr<rocksdb::TablePropertiesCollectorFactory>>>::_Vector_impl_data" = type { ptr, ptr, ptr }
%"class.std::shared_ptr.65" = type { %"class.std::__shared_ptr.66" }
%"class.std::__shared_ptr.66" = type { ptr, %"class.std::__shared_count" }
%"class.std::shared_ptr.68" = type { %"class.std::__shared_ptr.69" }
%"class.std::__shared_ptr.69" = type { ptr, %"class.std::__shared_count" }
%"struct.rocksdb::CompressionOptions" = type <{ i32, i32, i32, i32, i32, i32, i8, [7 x i8], i64, i8, [3 x i8], i32, i8, [7 x i8] }>
%"class.std::shared_ptr.39" = type { %"class.std::__shared_ptr.40" }
%"class.std::__shared_ptr.40" = type { ptr, %"class.std::__shared_count" }
%"class.std::shared_ptr.71" = type { %"class.std::__shared_ptr.72" }
%"class.std::__shared_ptr.72" = type { ptr, %"class.std::__shared_count" }
%"class.std::shared_ptr.74" = type { %"class.std::__shared_ptr.75" }
%"class.std::__shared_ptr.75" = type { ptr, %"class.std::__shared_count" }
%"class.std::shared_ptr.77" = type { %"class.std::__shared_ptr.78" }
%"class.std::__shared_ptr.78" = type { ptr, %"class.std::__shared_count" }
%"class.rocksdb::LDBCommand" = type { ptr, %"class.rocksdb::LDBCommandExecuteResult", %"class.std::__cxx11::basic_string", %"class.std::__cxx11::basic_string", %"class.std::__cxx11::basic_string", %"class.std::__cxx11::basic_string", %"class.std::__cxx11::basic_string", %"class.std::__cxx11::basic_string", ptr, ptr, %"class.std::map.87", %"class.std::map.92", i8, i8, i8, i8, i8, i8, i8, i8, i8, i8, %"class.std::__cxx11::basic_string", %"class.std::map", %"class.std::vector.3", %"class.std::vector.3", %"class.std::shared_ptr.98", %"struct.rocksdb::Options", %"class.std::vector.101", %"struct.rocksdb::ConfigOptions", %"struct.rocksdb::LDBOptions" }
%"class.rocksdb::LDBCommandExecuteResult" = type { i32, %"class.std::__cxx11::basic_string" }
%"class.std::map.87" = type { %"class.std::_Rb_tree.88" }
%"class.std::_Rb_tree.88" = type { %"struct.std::_Rb_tree<std::__cxx11::basic_string<char>, std::pair<const std::__cxx11::basic_string<char>, rocksdb::ColumnFamilyHandle *>, std::_Select1st<std::pair<const std::__cxx11::basic_string<char>, rocksdb::ColumnFamilyHandle *>>, std::less<std::__cxx11::basic_string<char>>>::_Rb_tree_impl" }
%"struct.std::_Rb_tree<std::__cxx11::basic_string<char>, std::pair<const std::__cxx11::basic_string<char>, rocksdb::ColumnFamilyHandle *>, std::_Select1st<std::pair<const std::__cxx11::basic_string<char>, rocksdb::ColumnFamilyHandle *>>, std::less<std::__cxx11::basic_string<char>>>::_Rb_tree_impl" = type { [8 x i8], %"struct.std::_Rb_tree_header" }
%"class.std::map.92" = type { %"class.std::_Rb_tree.93" }
%"class.std::_Rb_tree.93" = type { %"struct.std::_Rb_tree<unsigned int, std::pair<const unsigned int, const rocksdb::Comparator *>, std::_Select1st<std::pair<const unsigned int, const rocksdb::Comparator *>>, std::less<unsigned int>>::_Rb_tree_impl" }
%"struct.std::_Rb_tree<unsigned int, std::pair<const unsigned int, const rocksdb::Comparator *>, std::_Select1st<std::pair<const unsigned int, const rocksdb::Comparator *>>, std::less<unsigned int>>::_Rb_tree_impl" = type { [8 x i8], %"struct.std::_Rb_tree_header" }
%"class.std::shared_ptr.98" = type { %"class.std::__shared_ptr.99" }
%"class.std::__shared_ptr.99" = type { ptr, %"class.std::__shared_count" }
%"class.std::vector.101" = type { %"struct.std::_Vector_base.102" }
%"struct.std::_Vector_base.102" = type { %"struct.std::_Vector_base<rocksdb::ColumnFamilyDescriptor, std::allocator<rocksdb::ColumnFamilyDescriptor>>::_Vector_impl" }
%"struct.std::_Vector_base<rocksdb::ColumnFamilyDescriptor, std::allocator<rocksdb::ColumnFamilyDescriptor>>::_Vector_impl" = type { %"struct.std::_Vector_base<rocksdb::ColumnFamilyDescriptor, std::allocator<rocksdb::ColumnFamilyDescriptor>>::_Vector_impl_data" }
%"struct.std::_Vector_base<rocksdb::ColumnFamilyDescriptor, std::allocator<rocksdb::ColumnFamilyDescriptor>>::_Vector_impl_data" = type { ptr, ptr, ptr }
%"struct.rocksdb::ConfigOptions" = type { i8, i8, i8, i8, i8, %"class.std::__cxx11::basic_string", i32, i8, i64, ptr, %"class.std::shared_ptr.106" }
%"class.std::shared_ptr.106" = type { %"class.std::__shared_ptr.107" }
%"class.std::__shared_ptr.107" = type { ptr, %"class.std::__shared_count" }
%"struct.rocksdb::LDBOptions" = type { %"class.std::shared_ptr.80", %"class.std::__cxx11::basic_string" }
%"class.std::shared_ptr.80" = type { %"class.std::__shared_ptr.81" }
%"class.std::__shared_ptr.81" = type { ptr, %"class.std::__shared_count" }
%"struct.rocksdb::DBOptions" = type <{ i8, i8, i8, i8, i8, i8, i8, i8, i8, [7 x i8], ptr, %"class.std::shared_ptr", %"class.std::shared_ptr.8", %"class.std::shared_ptr.11", i8, [3 x i8], i32, i32, [4 x i8], i64, %"class.std::shared_ptr.14", i8, [7 x i8], %"class.std::vector.17", %"class.std::__cxx11::basic_string", %"class.std::__cxx11::basic_string", i64, i32, i32, i32, i32, i64, i64, i64, i64, i64, i32, [4 x i8], i64, i64, i64, i8, i8, i8, i8, i8, i8, [2 x i8], i32, i32, i8, [7 x i8], i64, i8, [7 x i8], i64, %"class.std::shared_ptr.22", i64, i64, i8, [7 x i8], i64, i64, i8, [7 x i8], %"class.std::vector.25", i8, [7 x i8], i64, i8, i8, i8, i8, [4 x i8], i64, i64, i64, i8, i8, i8, i8, [4 x i8], %"class.std::shared_ptr.30", ptr, i8, i8, i8, i8, i8, i8, i8, i8, i8, i8, i8, i8, i8, i8, [2 x i8], i64, %"class.std::shared_ptr.33", i8, [3 x i8], i32, i64, i8, [7 x i8], %"class.std::__cxx11::basic_string", %"class.rocksdb::SmallEnumSet", %"class.std::shared_ptr.36", i8, i8, [6 x i8], %"class.std::__cxx11::basic_string", i64, i64, i64, i8, i8, [6 x i8] }>
%"class.rocksdb::RepairCommand" = type <{ %"class.rocksdb::LDBCommand", i8, [7 x i8] }>
%"class.rocksdb::StderrLogger" = type { %"class.rocksdb::Logger.base", ptr, i64 }
%"class.rocksdb::Logger.base" = type <{ ptr, i8, i8 }>
%"class.rocksdb::Logger" = type <{ ptr, i8, i8, [6 x i8] }>

@_ZTVN7rocksdb12StderrLoggerE = external unnamed_addr constant { [13 x ptr] }, align 8
@_ZTVN7rocksdb6LoggerE = external unnamed_addr constant { [13 x ptr] }, align 8

; Function Attrs: mustprogress nounwind uwtable
define linkonce_odr void @_ZN7rocksdb6LoggerC2ENS_12InfoLogLevelE(ptr noundef nonnull align 8 dereferenceable(10) %0, i8 noundef zeroext %1) unnamed_addr #8 comdat align 2 {
  %3 = alloca ptr, align 8
  %4 = alloca i8, align 1
  store ptr %0, ptr %3, align 8, !tbaa !1057
  store i8 %1, ptr %4, align 1, !tbaa !1036
  %5 = load ptr, ptr %3, align 8
  store ptr getelementptr inbounds inrange(-16, 88) ({ [13 x ptr] }, ptr @_ZTVN7rocksdb6LoggerE, i32 0, i32 0, i32 2), ptr %5, align 8, !tbaa !26
  %6 = getelementptr inbounds nuw %"class.rocksdb::Logger", ptr %5, i32 0, i32 1
  store i8 0, ptr %6, align 8, !tbaa !1934
  %7 = getelementptr inbounds nuw %"class.rocksdb::Logger", ptr %5, i32 0, i32 2
  %8 = load i8, ptr %4, align 1, !tbaa !1036
  store i8 %8, ptr %7, align 1, !tbaa !1935
  ret void
}

; Function Attrs: mustprogress uwtable
define linkonce_odr void @_ZN7rocksdb12StderrLoggerC2ENS_12InfoLogLevelE(ptr noundef nonnull align 8 dereferenceable(32) %0, i8 noundef zeroext %1) unnamed_addr #7 comdat align 2 {
  %3 = alloca ptr, align 8
  %4 = alloca i8, align 1
  store ptr %0, ptr %3, align 8, !tbaa !1039
  store i8 %1, ptr %4, align 1, !tbaa !1036
  %5 = load ptr, ptr %3, align 8
  %6 = load i8, ptr %4, align 1, !tbaa !1036
  call void @_ZN7rocksdb6LoggerC2ENS_12InfoLogLevelE(ptr noundef nonnull align 8 dereferenceable(10) %5, i8 noundef zeroext %6)
  store ptr getelementptr inbounds inrange(-16, 88) ({ [13 x ptr] }, ptr @_ZTVN7rocksdb12StderrLoggerE, i32 0, i32 0, i32 2), ptr %5, align 8, !tbaa !26
  %7 = getelementptr inbounds nuw %"class.rocksdb::StderrLogger", ptr %5, i32 0, i32 1
  store ptr null, ptr %7, align 8, !tbaa !1041
  %8 = getelementptr inbounds nuw %"class.rocksdb::StderrLogger", ptr %5, i32 0, i32 2
  store i64 0, ptr %8, align 8, !tbaa !1044
  ret void
}

; Function Attrs: mustprogress uwtable
define void @_ZN7rocksdb13RepairCommand19OverrideBaseOptionsEv(ptr noundef nonnull align 8 dereferenceable(2209) %0) unnamed_addr #7 align 2 personality ptr @__gxx_personality_v0 {
  %2 = alloca ptr, align 8
  %3 = alloca i8, align 1
  %4 = alloca ptr, align 8
  %5 = alloca i32, align 4
  store ptr %0, ptr %2, align 8, !tbaa !1032
  %6 = load ptr, ptr %2, align 8
  call void @_ZN7rocksdb10LDBCommand19OverrideBaseOptionsEv(ptr noundef nonnull align 8 dereferenceable(2208) %6)
  call void @llvm.lifetime.start.p0(i64 1, ptr %3) #3
  %7 = getelementptr inbounds nuw %"class.rocksdb::RepairCommand", ptr %6, i32 0, i32 1
  %8 = load i8, ptr %7, align 8, !tbaa !1034, !range !254, !noundef !255
  %9 = trunc i8 %8 to i1
  %10 = select i1 %9, i8 1, i8 2
  store i8 %10, ptr %3, align 1, !tbaa !1036
  %11 = getelementptr inbounds nuw %"class.rocksdb::LDBCommand", ptr %6, i32 0, i32 27
  %12 = getelementptr inbounds nuw %"struct.rocksdb::DBOptions", ptr %11, i32 0, i32 13
  %13 = call noalias noundef nonnull ptr @_Znwm(i64 noundef 32) #30
  %14 = load i8, ptr %3, align 1, !tbaa !1036
  invoke void @_ZN7rocksdb12StderrLoggerC2ENS_12InfoLogLevelE(ptr noundef nonnull align 8 dereferenceable(32) %13, i8 noundef zeroext %14)
          to label %15 unwind label %16

15:                                               ; preds = %1
  call void @_ZNSt12__shared_ptrIN7rocksdb6LoggerELN9__gnu_cxx12_Lock_policyE2EE5resetINS0_12StderrLoggerEEENSt9enable_ifIXsr21__sp_is_constructibleIS1_T_EE5valueEvE4typeEPS8_(ptr noundef nonnull align 8 dereferenceable(16) %12, ptr noundef %13)
  call void @llvm.lifetime.end.p0(i64 1, ptr %3) #3
  ret void

16:                                               ; preds = %1
  %17 = landingpad { ptr, i32 }
          cleanup
  %18 = extractvalue { ptr, i32 } %17, 0
  store ptr %18, ptr %4, align 8
  %19 = extractvalue { ptr, i32 } %17, 1
  store i32 %19, ptr %5, align 4
  call void @_ZdlPvm(ptr noundef %13, i64 noundef 32) #31
  call void @llvm.lifetime.end.p0(i64 1, ptr %3) #3
  br label %20

20:                                               ; preds = %16
  %21 = load ptr, ptr %4, align 8
  %22 = load i32, ptr %5, align 4
  %23 = insertvalue { ptr, i32 } poison, ptr %21, 0
  %24 = insertvalue { ptr, i32 } %23, i32 %22, 1
  resume { ptr, i32 } %24
}