; Function Attrs: mustprogress uwtable
define void @_ZN7rocksdb13RepairCommand19OverrideBaseOptionsEv(ptr noundef nonnull align 8 dereferenceable(2209) initializes((512, 513)) %0) unnamed_addr #5 align 2 personality ptr @__gxx_personality_v0 {
  tail call void @_ZN7rocksdb10LDBCommand19OverrideBaseOptionsEv(ptr noundef nonnull align 8 dereferenceable(2208) %0)
  %2 = getelementptr inbounds nuw i8, ptr %0, i64 2208
  %3 = load i8, ptr %2, align 8, !tbaa !1905, !range !303, !noundef !304
  %4 = trunc nuw i8 %3 to i1
  %5 = select i1 %4, i8 1, i8 2
  %6 = tail call noalias noundef nonnull dereferenceable(32) ptr @_Znwm(i64 noundef 32) #38
  %7 = getelementptr inbounds nuw i8, ptr %6, i64 8
  store i8 0, ptr %7, align 8, !tbaa !1913
  %8 = getelementptr inbounds nuw i8, ptr %6, i64 9
  store i8 %5, ptr %8, align 1, !tbaa !1915
  store ptr getelementptr inbounds nuw inrange(-16, 88) (i8, ptr @_ZTVN7rocksdb12StderrLoggerE, i64 16), ptr %6, align 8, !tbaa !45
  %9 = getelementptr inbounds nuw i8, ptr %6, i64 16
  tail call void @llvm.memset.p0.i64(ptr noundef nonnull align 8 dereferenceable(16) %9, i8 0, i64 16, i1 false)
  %10 = getelementptr inbounds nuw i8, ptr %0, i64 568
  tail call void @_ZNSt12__shared_ptrIN7rocksdb6LoggerELN9__gnu_cxx12_Lock_policyE2EE5resetINS0_12StderrLoggerEEENSt9enable_ifIXsr21__sp_is_constructibleIS1_T_EE5valueEvE4typeEPS8_(ptr noundef nonnull align 8 dereferenceable(16) %10, ptr noundef nonnull %6)
  ret void
}